; Function Attrs: mustprogress nounwind uwtable
define hidden noundef signext i8 @_ZN17CompilationPolicy10comp_levelEP6Method(ptr noundef %0) local_unnamed_addr #0 align 2 {
  %2 = getelementptr inbounds i8, ptr %0, i64 72
  %3 = load volatile ptr, ptr %2, align 8
  tail call void asm sideeffect "", "~{memory},~{dirflag},~{fpsr},~{flags}"() #12, !srcloc !6
  %.not = icmp eq ptr %3, null
  br i1 %.not, label %11, label %4

4:                                                ; preds = %1
  %5 = getelementptr inbounds i8, ptr %3, i64 211
  %6 = load volatile i8, ptr %5, align 1
  %7 = icmp slt i8 %6, 1
  br i1 %7, label %8, label %11

8:                                                ; preds = %4
  %9 = getelementptr inbounds i8, ptr %3, i64 208
  %10 = load i8, ptr %9, align 8
  br label %11

11:                                               ; preds = %1, %4, %8
  %.0 = phi i8 [ %10, %8 ], [ 0, %4 ], [ 0, %1 ]
  ret i8 %.0
}